target datalayout = "e-m:e-p270:32:32-p271:32:32-p272:64:64-i64:64-i128:128-f80:128-n8:16:32:64-S128"
target triple = "x86_64-pc-linux-gnu"

%union.av_intfloat32 = type { i32 }
%struct.Half2FloatTables = type { [3072 x i32], [64 x i32], [64 x i16] }

; Function Attrs: alwaysinline nounwind willreturn memory(none) uwtable
define internal float @av_clipf_c(float noundef %0, float noundef %1, float noundef %2) #4 {
  %4 = alloca float, align 4
  %5 = alloca float, align 4
  %6 = alloca float, align 4
  store float %0, ptr %4, align 4, !tbaa !135
  store float %1, ptr %5, align 4, !tbaa !135
  store float %2, ptr %6, align 4, !tbaa !135
  %7 = load float, ptr %4, align 4, !tbaa !135
  %8 = load float, ptr %5, align 4, !tbaa !135
  %9 = fcmp nsz ogt float %7, %8
  br i1 %9, label %10, label %12

10:                                               ; preds = %3
  %11 = load float, ptr %4, align 4, !tbaa !135
  br label %14

12:                                               ; preds = %3
  %13 = load float, ptr %5, align 4, !tbaa !135
  br label %14

14:                                               ; preds = %12, %10
  %15 = phi nsz float [ %11, %10 ], [ %13, %12 ]
  %16 = load float, ptr %6, align 4, !tbaa !135
  %17 = fcmp nsz ogt float %15, %16
  br i1 %17, label %18, label %20

18:                                               ; preds = %14
  %19 = load float, ptr %6, align 4, !tbaa !135
  br label %30

20:                                               ; preds = %14
  %21 = load float, ptr %4, align 4, !tbaa !135
  %22 = load float, ptr %5, align 4, !tbaa !135
  %23 = fcmp nsz ogt float %21, %22
  br i1 %23, label %24, label %26

24:                                               ; preds = %20
  %25 = load float, ptr %4, align 4, !tbaa !135
  br label %28

26:                                               ; preds = %20
  %27 = load float, ptr %5, align 4, !tbaa !135
  br label %28

28:                                               ; preds = %26, %24
  %29 = phi nsz float [ %25, %24 ], [ %27, %26 ]
  br label %30

30:                                               ; preds = %28, %18
  %31 = phi nsz float [ %19, %18 ], [ %29, %28 ]
  ret float %31
}

; Function Attrs: alwaysinline nounwind uwtable
define internal float @av_int2float(i32 noundef %0) #3 {
  %2 = alloca i32, align 4
  %3 = alloca %union.av_intfloat32, align 4
  store i32 %0, ptr %2, align 4, !tbaa !30
  call void @llvm.lifetime.start.p0(i64 4, ptr %3) #9
  %4 = load i32, ptr %2, align 4, !tbaa !30
  store i32 %4, ptr %3, align 4, !tbaa !36
  %5 = load float, ptr %3, align 4, !tbaa !36
  call void @llvm.lifetime.end.p0(i64 4, ptr %3) #9
  ret float %5
}

; Function Attrs: inlinehint nounwind uwtable
define internal i32 @half2float(i16 noundef zeroext %0, ptr noundef %1) #6 {
  %3 = alloca i16, align 2
  %4 = alloca ptr, align 8
  %5 = alloca i32, align 4
  store i16 %0, ptr %3, align 2, !tbaa !44
  store ptr %1, ptr %4, align 8, !tbaa !137
  call void @llvm.lifetime.start.p0(i64 4, ptr %5) #9
  %6 = load ptr, ptr %4, align 8, !tbaa !137
  %7 = getelementptr inbounds nuw %struct.Half2FloatTables, ptr %6, i32 0, i32 0
  %8 = load ptr, ptr %4, align 8, !tbaa !137
  %9 = getelementptr inbounds nuw %struct.Half2FloatTables, ptr %8, i32 0, i32 2
  %10 = load i16, ptr %3, align 2, !tbaa !44
  %11 = zext i16 %10 to i32
  %12 = ashr i32 %11, 10
  %13 = sext i32 %12 to i64
  %14 = getelementptr inbounds [64 x i16], ptr %9, i64 0, i64 %13
  %15 = load i16, ptr %14, align 2, !tbaa !44
  %16 = zext i16 %15 to i32
  %17 = load i16, ptr %3, align 2, !tbaa !44
  %18 = zext i16 %17 to i32
  %19 = and i32 %18, 1023
  %20 = add nsw i32 %16, %19
  %21 = sext i32 %20 to i64
  %22 = getelementptr inbounds [3072 x i32], ptr %7, i64 0, i64 %21
  %23 = load i32, ptr %22, align 4, !tbaa !30
  %24 = load ptr, ptr %4, align 8, !tbaa !137
  %25 = getelementptr inbounds nuw %struct.Half2FloatTables, ptr %24, i32 0, i32 1
  %26 = load i16, ptr %3, align 2, !tbaa !44
  %27 = zext i16 %26 to i32
  %28 = ashr i32 %27, 10
  %29 = sext i32 %28 to i64
  %30 = getelementptr inbounds [64 x i32], ptr %25, i64 0, i64 %29
  %31 = load i32, ptr %30, align 4, !tbaa !30
  %32 = add i32 %23, %31
  store i32 %32, ptr %5, align 4, !tbaa !30
  %33 = load i32, ptr %5, align 4, !tbaa !30
  call void @llvm.lifetime.end.p0(i64 4, ptr %5) #9
  ret i32 %33
}

; Function Attrs: alwaysinline nounwind willreturn memory(none) uwtable
define internal zeroext i16 @av_bswap16(i16 noundef zeroext %0) #4 {
  %2 = alloca i16, align 2
  store i16 %0, ptr %2, align 2, !tbaa !44
  %3 = load i16, ptr %2, align 2, !tbaa !44
  %4 = zext i16 %3 to i32
  %5 = ashr i32 %4, 8
  %6 = load i16, ptr %2, align 2, !tbaa !44
  %7 = zext i16 %6 to i32
  %8 = shl i32 %7, 8
  %9 = or i32 %5, %8
  %10 = trunc i32 %9 to i16
  store i16 %10, ptr %2, align 2, !tbaa !44
  %11 = load i16, ptr %2, align 2, !tbaa !44
  ret i16 %11
}

; Function Attrs: alwaysinline nounwind uwtable
define internal void @rgbaf16ToY_endian(ptr noundef %0, ptr noundef %1, i32 noundef %2, i32 noundef %3, ptr noundef %4, ptr noundef %5) #3 {
  %7 = alloca ptr, align 8
  %8 = alloca ptr, align 8
  %9 = alloca i32, align 4
  %10 = alloca i32, align 4
  %11 = alloca ptr, align 8
  %12 = alloca ptr, align 8
  %13 = alloca i32, align 4
  %14 = alloca i32, align 4
  %15 = alloca i32, align 4
  %16 = alloca i32, align 4
  %17 = alloca i32, align 4
  %18 = alloca i32, align 4
  %19 = alloca i32, align 4
  store ptr %0, ptr %7, align 8, !tbaa !43
  store ptr %1, ptr %8, align 8, !tbaa !43
  store i32 %2, ptr %9, align 4, !tbaa !30
  store i32 %3, ptr %10, align 4, !tbaa !30
  store ptr %4, ptr %11, align 8, !tbaa !35
  store ptr %5, ptr %12, align 8, !tbaa !137
  call void @llvm.lifetime.start.p0(i64 4, ptr %13) #9
  %20 = load ptr, ptr %11, align 8, !tbaa !35
  %21 = getelementptr inbounds i32, ptr %20, i64 0
  %22 = load i32, ptr %21, align 4, !tbaa !30
  store i32 %22, ptr %13, align 4, !tbaa !30
  call void @llvm.lifetime.start.p0(i64 4, ptr %14) #9
  %23 = load ptr, ptr %11, align 8, !tbaa !35
  %24 = getelementptr inbounds i32, ptr %23, i64 1
  %25 = load i32, ptr %24, align 4, !tbaa !30
  store i32 %25, ptr %14, align 4, !tbaa !30
  call void @llvm.lifetime.start.p0(i64 4, ptr %15) #9
  %26 = load ptr, ptr %11, align 8, !tbaa !35
  %27 = getelementptr inbounds i32, ptr %26, i64 2
  %28 = load i32, ptr %27, align 4, !tbaa !30
  store i32 %28, ptr %15, align 4, !tbaa !30
  call void @llvm.lifetime.start.p0(i64 4, ptr %16) #9
  store i32 0, ptr %16, align 4, !tbaa !30
  br label %29

29:                                               ; preds = %145, %6
  %30 = load i32, ptr %16, align 4, !tbaa !30
  %31 = load i32, ptr %10, align 4, !tbaa !30
  %32 = icmp slt i32 %30, %31
  br i1 %32, label %33, label %148

33:                                               ; preds = %29
  call void @llvm.lifetime.start.p0(i64 4, ptr %17) #9
  %34 = load i32, ptr %9, align 4, !tbaa !30
  %35 = icmp ne i32 %34, 0
  br i1 %35, label %36, label %46

36:                                               ; preds = %33
  %37 = load ptr, ptr %8, align 8, !tbaa !43
  %38 = load i32, ptr %16, align 4, !tbaa !30
  %39 = mul nsw i32 %38, 4
  %40 = add nsw i32 %39, 0
  %41 = sext i32 %40 to i64
  %42 = getelementptr inbounds i16, ptr %37, i64 %41
  %43 = load i16, ptr %42, align 1, !tbaa !36
  %44 = call zeroext i16 @av_bswap16(i16 noundef zeroext %43) #10
  %45 = zext i16 %44 to i32
  br label %55

46:                                               ; preds = %33
  %47 = load ptr, ptr %8, align 8, !tbaa !43
  %48 = load i32, ptr %16, align 4, !tbaa !30
  %49 = mul nsw i32 %48, 4
  %50 = add nsw i32 %49, 0
  %51 = sext i32 %50 to i64
  %52 = getelementptr inbounds i16, ptr %47, i64 %51
  %53 = load i16, ptr %52, align 1, !tbaa !36
  %54 = zext i16 %53 to i32
  br label %55

55:                                               ; preds = %46, %36
  %56 = phi i32 [ %45, %36 ], [ %54, %46 ]
  %57 = trunc i32 %56 to i16
  %58 = load ptr, ptr %12, align 8, !tbaa !137
  %59 = call i32 @half2float(i16 noundef zeroext %57, ptr noundef %58)
  %60 = call nsz float @av_int2float(i32 noundef %59)
  %61 = fmul nsz float 6.553500e+04, %60
  %62 = call nsz float @av_clipf_c(float noundef %61, float noundef 0.000000e+00, float noundef 6.553500e+04) #10
  %63 = call i64 @llvm.lrint.i64.f32(float %62)
  %64 = trunc i64 %63 to i32
  store i32 %64, ptr %17, align 4, !tbaa !30
  call void @llvm.lifetime.start.p0(i64 4, ptr %18) #9
  %65 = load i32, ptr %9, align 4, !tbaa !30
  %66 = icmp ne i32 %65, 0
  br i1 %66, label %67, label %77

67:                                               ; preds = %55
  %68 = load ptr, ptr %8, align 8, !tbaa !43
  %69 = load i32, ptr %16, align 4, !tbaa !30
  %70 = mul nsw i32 %69, 4
  %71 = add nsw i32 %70, 1
  %72 = sext i32 %71 to i64
  %73 = getelementptr inbounds i16, ptr %68, i64 %72
  %74 = load i16, ptr %73, align 1, !tbaa !36
  %75 = call zeroext i16 @av_bswap16(i16 noundef zeroext %74) #10
  %76 = zext i16 %75 to i32
  br label %86

77:                                               ; preds = %55
  %78 = load ptr, ptr %8, align 8, !tbaa !43
  %79 = load i32, ptr %16, align 4, !tbaa !30
  %80 = mul nsw i32 %79, 4
  %81 = add nsw i32 %80, 1
  %82 = sext i32 %81 to i64
  %83 = getelementptr inbounds i16, ptr %78, i64 %82
  %84 = load i16, ptr %83, align 1, !tbaa !36
  %85 = zext i16 %84 to i32
  br label %86

86:                                               ; preds = %77, %67
  %87 = phi i32 [ %76, %67 ], [ %85, %77 ]
  %88 = trunc i32 %87 to i16
  %89 = load ptr, ptr %12, align 8, !tbaa !137
  %90 = call i32 @half2float(i16 noundef zeroext %88, ptr noundef %89)
  %91 = call nsz float @av_int2float(i32 noundef %90)
  %92 = fmul nsz float 6.553500e+04, %91
  %93 = call nsz float @av_clipf_c(float noundef %92, float noundef 0.000000e+00, float noundef 6.553500e+04) #10
  %94 = call i64 @llvm.lrint.i64.f32(float %93)
  %95 = trunc i64 %94 to i32
  store i32 %95, ptr %18, align 4, !tbaa !30
  call void @llvm.lifetime.start.p0(i64 4, ptr %19) #9
  %96 = load i32, ptr %9, align 4, !tbaa !30
  %97 = icmp ne i32 %96, 0
  br i1 %97, label %98, label %108

98:                                               ; preds = %86
  %99 = load ptr, ptr %8, align 8, !tbaa !43
  %100 = load i32, ptr %16, align 4, !tbaa !30
  %101 = mul nsw i32 %100, 4
  %102 = add nsw i32 %101, 2
  %103 = sext i32 %102 to i64
  %104 = getelementptr inbounds i16, ptr %99, i64 %103
  %105 = load i16, ptr %104, align 1, !tbaa !36
  %106 = call zeroext i16 @av_bswap16(i16 noundef zeroext %105) #10
  %107 = zext i16 %106 to i32
  br label %117

108:                                              ; preds = %86
  %109 = load ptr, ptr %8, align 8, !tbaa !43
  %110 = load i32, ptr %16, align 4, !tbaa !30
  %111 = mul nsw i32 %110, 4
  %112 = add nsw i32 %111, 2
  %113 = sext i32 %112 to i64
  %114 = getelementptr inbounds i16, ptr %109, i64 %113
  %115 = load i16, ptr %114, align 1, !tbaa !36
  %116 = zext i16 %115 to i32
  br label %117

117:                                              ; preds = %108, %98
  %118 = phi i32 [ %107, %98 ], [ %116, %108 ]
  %119 = trunc i32 %118 to i16
  %120 = load ptr, ptr %12, align 8, !tbaa !137
  %121 = call i32 @half2float(i16 noundef zeroext %119, ptr noundef %120)
  %122 = call nsz float @av_int2float(i32 noundef %121)
  %123 = fmul nsz float 6.553500e+04, %122
  %124 = call nsz float @av_clipf_c(float noundef %123, float noundef 0.000000e+00, float noundef 6.553500e+04) #10
  %125 = call i64 @llvm.lrint.i64.f32(float %124)
  %126 = trunc i64 %125 to i32
  store i32 %126, ptr %19, align 4, !tbaa !30
  %127 = load i32, ptr %13, align 4, !tbaa !30
  %128 = load i32, ptr %17, align 4, !tbaa !30
  %129 = mul nsw i32 %127, %128
  %130 = load i32, ptr %14, align 4, !tbaa !30
  %131 = load i32, ptr %18, align 4, !tbaa !30
  %132 = mul nsw i32 %130, %131
  %133 = add nsw i32 %129, %132
  %134 = load i32, ptr %15, align 4, !tbaa !30
  %135 = load i32, ptr %19, align 4, !tbaa !30
  %136 = mul nsw i32 %134, %135
  %137 = add nsw i32 %133, %136
  %138 = add nsw i32 %137, 134234112
  %139 = ashr i32 %138, 15
  %140 = trunc i32 %139 to i16
  %141 = load ptr, ptr %7, align 8, !tbaa !43
  %142 = load i32, ptr %16, align 4, !tbaa !30
  %143 = sext i32 %142 to i64
  %144 = getelementptr inbounds i16, ptr %141, i64 %143
  store i16 %140, ptr %144, align 2, !tbaa !44
  call void @llvm.lifetime.end.p0(i64 4, ptr %19) #9
  call void @llvm.lifetime.end.p0(i64 4, ptr %18) #9
  call void @llvm.lifetime.end.p0(i64 4, ptr %17) #9
  br label %145

145:                                              ; preds = %117
  %146 = load i32, ptr %16, align 4, !tbaa !30
  %147 = add nsw i32 %146, 1
  store i32 %147, ptr %16, align 4, !tbaa !30
  br label %29, !llvm.loop !165

148:                                              ; preds = %29
  call void @llvm.lifetime.end.p0(i64 4, ptr %16) #9
  call void @llvm.lifetime.end.p0(i64 4, ptr %15) #9
  call void @llvm.lifetime.end.p0(i64 4, ptr %14) #9
  call void @llvm.lifetime.end.p0(i64 4, ptr %13) #9
  ret void
}

; Function Attrs: nounwind uwtable
define internal void @rgbaf16leToY_c(ptr noundef %0, ptr noundef %1, ptr noundef %2, ptr noundef %3, i32 noundef %4, ptr noundef %5, ptr noundef %6) #2 {
  %8 = alloca ptr, align 8
  %9 = alloca ptr, align 8
  %10 = alloca ptr, align 8
  %11 = alloca ptr, align 8
  %12 = alloca i32, align 4
  %13 = alloca ptr, align 8
  %14 = alloca ptr, align 8
  %15 = alloca ptr, align 8
  %16 = alloca ptr, align 8
  %17 = alloca ptr, align 8
  store ptr %0, ptr %8, align 8, !tbaa !34
  store ptr %1, ptr %9, align 8, !tbaa !34
  store ptr %2, ptr %10, align 8, !tbaa !34
  store ptr %3, ptr %11, align 8, !tbaa !34
  store i32 %4, ptr %12, align 4, !tbaa !30
  store ptr %5, ptr %13, align 8, !tbaa !35
  store ptr %6, ptr %14, align 8, !tbaa !31
  call void @llvm.lifetime.start.p0(i64 8, ptr %15) #9
  %18 = load ptr, ptr %9, align 8, !tbaa !34
  store ptr %18, ptr %15, align 8, !tbaa !43
  call void @llvm.lifetime.start.p0(i64 8, ptr %16) #9
  %19 = load ptr, ptr %8, align 8, !tbaa !34
  store ptr %19, ptr %16, align 8, !tbaa !43
  call void @llvm.lifetime.start.p0(i64 8, ptr %17) #9
  %20 = load ptr, ptr %13, align 8, !tbaa !35
  store ptr %20, ptr %17, align 8, !tbaa !35
  %21 = load ptr, ptr %16, align 8, !tbaa !43
  %22 = load ptr, ptr %15, align 8, !tbaa !43
  %23 = load i32, ptr %12, align 4, !tbaa !30
  %24 = load ptr, ptr %17, align 8, !tbaa !35
  %25 = load ptr, ptr %14, align 8, !tbaa !31
  call void @rgbaf16ToY_endian(ptr noundef %21, ptr noundef %22, i32 noundef 0, i32 noundef %23, ptr noundef %24, ptr noundef %25)
  call void @llvm.lifetime.end.p0(i64 8, ptr %17) #9
  call void @llvm.lifetime.end.p0(i64 8, ptr %16) #9
  call void @llvm.lifetime.end.p0(i64 8, ptr %15) #9
  ret void
}