; Function Attrs: nofree norecurse nosync nounwind memory(argmem: readwrite) uwtable
define internal void @rgbaf16leToY_c(ptr noundef writeonly captures(none) %0, ptr noundef readonly captures(none) %1, ptr readnone captures(none) %2, ptr readnone captures(none) %3, i32 noundef %4, ptr noundef readonly captures(none) %5, ptr noundef readonly captures(none) %6) #1 {
  %8 = load i32, ptr %5, align 4, !tbaa !42
  %9 = getelementptr inbounds nuw i8, ptr %5, i64 4
  %10 = load i32, ptr %9, align 4, !tbaa !42
  %11 = getelementptr inbounds nuw i8, ptr %5, i64 8
  %12 = load i32, ptr %11, align 4, !tbaa !42
  %13 = icmp sgt i32 %4, 0
  br i1 %13, label %.lr.ph, label %rgbaf16ToY_endian.exit

.lr.ph:                                           ; preds = %7
  %14 = getelementptr inbounds nuw i8, ptr %6, i64 12544
  %15 = getelementptr inbounds nuw i8, ptr %6, i64 12288
  %wide.trip.count = zext nneg i32 %4 to i64
  br label %16

16:                                               ; preds = %.lr.ph, %16
  %indvars.iv = phi i64 [ 0, %.lr.ph ], [ %indvars.iv.next, %16 ]
  %.idx = shl nsw i64 %indvars.iv, 3
  %17 = getelementptr inbounds nuw i8, ptr %1, i64 %.idx
  %18 = load i16, ptr %17, align 1, !tbaa !34
  %19 = zext i16 %18 to i32
  %20 = lshr i32 %19, 10
  %21 = zext nneg i32 %20 to i64
  %22 = getelementptr inbounds nuw [64 x i16], ptr %14, i64 0, i64 %21
  %23 = load i16, ptr %22, align 2, !tbaa !43
  %24 = zext i16 %23 to i32
  %25 = and i32 %19, 1023
  %26 = add nuw nsw i32 %25, %24
  %27 = zext nneg i32 %26 to i64
  %28 = getelementptr inbounds nuw [3072 x i32], ptr %6, i64 0, i64 %27
  %29 = load i32, ptr %28, align 4, !tbaa !42
  %30 = getelementptr inbounds nuw [64 x i32], ptr %15, i64 0, i64 %21
  %31 = load i32, ptr %30, align 4, !tbaa !42
  %32 = add i32 %31, %29
  %33 = bitcast i32 %32 to float
  %34 = fmul nsz float %33, 6.553500e+04
  %35 = fcmp nsz ogt float %34, 0.000000e+00
  %36 = select nsz i1 %35, float %34, float 0.000000e+00
  %37 = fcmp nsz ogt float %36, 6.553500e+04
  %..i34.i = select nsz i1 %37, float 6.553500e+04, float %36
  %38 = tail call i64 @llvm.lrint.i64.f32(float %..i34.i)
  %39 = trunc i64 %38 to i32
  %40 = getelementptr inbounds nuw i8, ptr %17, i64 2
  %41 = load i16, ptr %40, align 1, !tbaa !34
  %42 = zext i16 %41 to i32
  %43 = lshr i32 %42, 10
  %44 = zext nneg i32 %43 to i64
  %45 = getelementptr inbounds nuw [64 x i16], ptr %14, i64 0, i64 %44
  %46 = load i16, ptr %45, align 2, !tbaa !43
  %47 = zext i16 %46 to i32
  %48 = and i32 %42, 1023
  %49 = add nuw nsw i32 %48, %47
  %50 = zext nneg i32 %49 to i64
  %51 = getelementptr inbounds nuw [3072 x i32], ptr %6, i64 0, i64 %50
  %52 = load i32, ptr %51, align 4, !tbaa !42
  %53 = getelementptr inbounds nuw [64 x i32], ptr %15, i64 0, i64 %44
  %54 = load i32, ptr %53, align 4, !tbaa !42
  %55 = add i32 %54, %52
  %56 = bitcast i32 %55 to float
  %57 = fmul nsz float %56, 6.553500e+04
  %58 = fcmp nsz ogt float %57, 0.000000e+00
  %59 = select nsz i1 %58, float %57, float 0.000000e+00
  %60 = fcmp nsz ogt float %59, 6.553500e+04
  %..i33.i = select nsz i1 %60, float 6.553500e+04, float %59
  %61 = tail call i64 @llvm.lrint.i64.f32(float %..i33.i)
  %62 = trunc i64 %61 to i32
  %63 = getelementptr inbounds nuw i8, ptr %17, i64 4
  %64 = load i16, ptr %63, align 1, !tbaa !34
  %65 = zext i16 %64 to i32
  %66 = lshr i32 %65, 10
  %67 = zext nneg i32 %66 to i64
  %68 = getelementptr inbounds nuw [64 x i16], ptr %14, i64 0, i64 %67
  %69 = load i16, ptr %68, align 2, !tbaa !43
  %70 = zext i16 %69 to i32
  %71 = and i32 %65, 1023
  %72 = add nuw nsw i32 %71, %70
  %73 = zext nneg i32 %72 to i64
  %74 = getelementptr inbounds nuw [3072 x i32], ptr %6, i64 0, i64 %73
  %75 = load i32, ptr %74, align 4, !tbaa !42
  %76 = getelementptr inbounds nuw [64 x i32], ptr %15, i64 0, i64 %67
  %77 = load i32, ptr %76, align 4, !tbaa !42
  %78 = add i32 %77, %75
  %79 = bitcast i32 %78 to float
  %80 = fmul nsz float %79, 6.553500e+04
  %81 = fcmp nsz ogt float %80, 0.000000e+00
  %82 = select nsz i1 %81, float %80, float 0.000000e+00
  %83 = fcmp nsz ogt float %82, 6.553500e+04
  %..i.i = select nsz i1 %83, float 6.553500e+04, float %82
  %84 = tail call i64 @llvm.lrint.i64.f32(float %..i.i)
  %85 = trunc i64 %84 to i32
  %86 = mul nsw i32 %8, %39
  %87 = mul nsw i32 %10, %62
  %88 = mul nsw i32 %12, %85
  %89 = add i32 %86, 134234112
  %90 = add i32 %89, %87
  %91 = add i32 %90, %88
  %92 = lshr i32 %91, 15
  %93 = trunc i32 %92 to i16
  %94 = getelementptr inbounds nuw i16, ptr %0, i64 %indvars.iv
  store i16 %93, ptr %94, align 2, !tbaa !43
  %indvars.iv.next = add nuw nsw i64 %indvars.iv, 1
  %exitcond.not = icmp eq i64 %indvars.iv.next, %wide.trip.count
  br i1 %exitcond.not, label %rgbaf16ToY_endian.exit, label %16, !llvm.loop !139

rgbaf16ToY_endian.exit:                           ; preds = %16, %7
  ret void
}